target datalayout = "e-m:e-p270:32:32-p271:32:32-p272:64:64-i64:64-i128:128-f80:128-n8:16:32:64-S128"
target triple = "x86_64-pc-linux-gnu"

%struct.quic_pp_cipher = type { ptr, [12 x i8] }
%struct._StringInfo = type { ptr, i32 }

@.str.494 = private unnamed_addr constant [7 x i8] c"tls13 \00", align 1
@.str.495 = private unnamed_addr constant [29 x i8] c"Unsupported cipher algorithm\00", align 1
@.str.500 = private unnamed_addr constant [27 x i8] c"Failed to create PP cipher\00", align 1
@.str.501 = private unnamed_addr constant [44 x i8] c"Failed to derive key material for PP cipher\00", align 1
@.str.502 = private unnamed_addr constant [9 x i8] c"quic key\00", align 1
@.str.503 = private unnamed_addr constant [11 x i8] c"quicv2 key\00", align 1
@.str.504 = private unnamed_addr constant [8 x i8] c"quic iv\00", align 1
@.str.505 = private unnamed_addr constant [10 x i8] c"quicv2 iv\00", align 1

; Function Attrs: alwaysinline nounwind
define internal ptr @memcpy.inline(ptr noalias %0, ptr noalias %1, i64 %2) #4 {
  %4 = alloca ptr, align 8
  %5 = alloca ptr, align 8
  %6 = alloca i64, align 8
  store ptr %0, ptr %4, align 8
  store ptr %1, ptr %5, align 8
  store i64 %2, ptr %6, align 8
  %7 = load ptr, ptr %4, align 8
  %8 = load ptr, ptr %5, align 8
  %9 = load i64, ptr %6, align 8
  %10 = load ptr, ptr %4, align 8
  %11 = call i64 @llvm.objectsize.i64.p0(ptr %10, i1 false, i1 true, i1 true)
  %12 = call ptr @__memcpy_chk(ptr noundef %7, ptr noundef %8, i64 noundef %9, i64 noundef %11) #19
  ret ptr %12
}

; Function Attrs: null_pointer_is_valid sspstrong uwtable
define internal zeroext i1 @quic_hkdf_expand_label(i32 noundef %0, ptr noundef %1, i32 noundef %2, ptr noundef %3, ptr noundef %4, i32 noundef %5) #0 {
  %7 = alloca i1, align 1
  %8 = alloca i32, align 4
  %9 = alloca ptr, align 8
  %10 = alloca i32, align 4
  %11 = alloca ptr, align 8
  %12 = alloca ptr, align 8
  %13 = alloca i32, align 4
  %14 = alloca %struct._StringInfo, align 8
  %15 = alloca ptr, align 8
  %16 = alloca i32, align 4
  store i32 %0, ptr %8, align 4
  store ptr %1, ptr %9, align 8
  store i32 %2, ptr %10, align 4
  store ptr %3, ptr %11, align 8
  store ptr %4, ptr %12, align 8
  store i32 %5, ptr %13, align 4
  call void @llvm.lifetime.start.p0(i64 16, ptr %14) #19
  %17 = getelementptr inbounds nuw %struct._StringInfo, ptr %14, i32 0, i32 0
  %18 = load ptr, ptr %9, align 8
  store ptr %18, ptr %17, align 8
  %19 = getelementptr inbounds nuw %struct._StringInfo, ptr %14, i32 0, i32 1
  %20 = load i32, ptr %10, align 4
  store i32 %20, ptr %19, align 8
  %21 = getelementptr i8, ptr %14, i64 12
  call void @llvm.memset.p0.i64(ptr align 4 %21, i8 0, i64 4, i1 false)
  call void @llvm.lifetime.start.p0(i64 8, ptr %15) #19
  store ptr null, ptr %15, align 8
  %22 = load i32, ptr %8, align 4
  %23 = load ptr, ptr %11, align 8
  %24 = load i32, ptr %13, align 4
  %25 = trunc i32 %24 to i16
  %26 = call zeroext i1 @tls13_hkdf_expand_label(i32 noundef %22, ptr noundef %14, ptr noundef @.str.494, ptr noundef %23, i16 noundef zeroext %25, ptr noundef %15)
  br i1 %26, label %27, label %34

27:                                               ; preds = %6
  %28 = load ptr, ptr %12, align 8
  %29 = load ptr, ptr %15, align 8
  %30 = load i32, ptr %13, align 4
  %31 = zext i32 %30 to i64
  %32 = call ptr @memcpy.inline(ptr noundef %28, ptr noundef %29, i64 noundef %31) #19
  %33 = load ptr, ptr %15, align 8
  call void @wmem_free(ptr noundef null, ptr noundef %33)
  store i1 true, ptr %7, align 1
  store i32 1, ptr %16, align 4
  br label %35

34:                                               ; preds = %6
  store i1 false, ptr %7, align 1
  store i32 1, ptr %16, align 4
  br label %35

35:                                               ; preds = %34, %27
  call void @llvm.lifetime.end.p0(i64 8, ptr %15) #19
  call void @llvm.lifetime.end.p0(i64 16, ptr %14) #19
  %36 = load i1, ptr %7, align 1
  ret i1 %36
}

; Function Attrs: inlinehint nounwind null_pointer_is_valid sspstrong uwtable
define internal zeroext i1 @is_quic_v2(i32 noundef %0) #10 {
  %2 = alloca i32, align 4
  store i32 %0, ptr %2, align 4
  %3 = load i32, ptr %2, align 4
  %4 = icmp eq i32 %3, 1798521807
  ret i1 %4
}

; Function Attrs: alwaysinline nounwind
define internal ptr @memset.inline(ptr %0, i32 %1, i64 %2) #4 {
  %4 = alloca ptr, align 8
  %5 = alloca i32, align 4
  %6 = alloca i64, align 8
  store ptr %0, ptr %4, align 8
  store i32 %1, ptr %5, align 4
  store i64 %2, ptr %6, align 8
  %7 = load ptr, ptr %4, align 8
  %8 = load i32, ptr %5, align 4
  %9 = load i64, ptr %6, align 8
  %10 = load ptr, ptr %4, align 8
  %11 = call i64 @llvm.objectsize.i64.p0(ptr %10, i1 false, i1 true, i1 true)
  %12 = call ptr @__memset_chk(ptr noundef %7, i32 noundef %8, i64 noundef %9, i64 noundef %11) #19
  ret ptr %12
}

; Function Attrs: null_pointer_is_valid sspstrong uwtable
define internal zeroext i1 @quic_pp_cipher_init(ptr noundef %0, i32 noundef %1, i8 noundef zeroext %2, ptr noundef %3, i32 noundef %4) #0 {
  %6 = alloca i1, align 1
  %7 = alloca ptr, align 8
  %8 = alloca i32, align 4
  %9 = alloca i8, align 1
  %10 = alloca ptr, align 8
  %11 = alloca i32, align 4
  %12 = alloca [32 x i8], align 16
  %13 = alloca i32, align 4
  %14 = alloca ptr, align 8
  %15 = alloca ptr, align 8
  %16 = alloca i32, align 4
  store ptr %0, ptr %7, align 8
  store i32 %1, ptr %8, align 4
  store i8 %2, ptr %9, align 1
  store ptr %3, ptr %10, align 8
  store i32 %4, ptr %11, align 4
  call void @llvm.lifetime.start.p0(i64 32, ptr %12) #19
  call void @llvm.lifetime.start.p0(i64 4, ptr %13) #19
  %17 = load i32, ptr %8, align 4
  %18 = call i32 @gcry_md_get_algo_dlen(i32 noundef %17)
  store i32 %18, ptr %13, align 4
  call void @llvm.lifetime.start.p0(i64 8, ptr %14) #19
  %19 = load i32, ptr %11, align 4
  %20 = call zeroext i1 @is_quic_v2(i32 noundef %19)
  %21 = xor i1 %20, true
  %22 = select i1 %21, ptr @.str.502, ptr @.str.503
  store ptr %22, ptr %14, align 8
  call void @llvm.lifetime.start.p0(i64 8, ptr %15) #19
  %23 = load i32, ptr %11, align 4
  %24 = call zeroext i1 @is_quic_v2(i32 noundef %23)
  %25 = xor i1 %24, true
  %26 = select i1 %25, ptr @.str.504, ptr @.str.505
  store ptr %26, ptr %15, align 8
  %27 = load i8, ptr %9, align 1
  %28 = zext i8 %27 to i64
  %29 = icmp ugt i64 %28, 32
  br i1 %29, label %30, label %31

30:                                               ; preds = %5
  store i1 false, ptr %6, align 1
  store i32 1, ptr %16, align 4
  br label %59

31:                                               ; preds = %5
  %32 = load i32, ptr %8, align 4
  %33 = load ptr, ptr %10, align 8
  %34 = load i32, ptr %13, align 4
  %35 = load ptr, ptr %14, align 8
  %36 = getelementptr inbounds [32 x i8], ptr %12, i64 0, i64 0
  %37 = load i8, ptr %9, align 1
  %38 = zext i8 %37 to i32
  %39 = call zeroext i1 @quic_hkdf_expand_label(i32 noundef %32, ptr noundef %33, i32 noundef %34, ptr noundef %35, ptr noundef %36, i32 noundef %38)
  br i1 %39, label %40, label %49

40:                                               ; preds = %31
  %41 = load i32, ptr %8, align 4
  %42 = load ptr, ptr %10, align 8
  %43 = load i32, ptr %13, align 4
  %44 = load ptr, ptr %15, align 8
  %45 = load ptr, ptr %7, align 8
  %46 = getelementptr inbounds nuw %struct.quic_pp_cipher, ptr %45, i32 0, i32 1
  %47 = getelementptr inbounds [12 x i8], ptr %46, i64 0, i64 0
  %48 = call zeroext i1 @quic_hkdf_expand_label(i32 noundef %41, ptr noundef %42, i32 noundef %43, ptr noundef %44, ptr noundef %47, i32 noundef 12)
  br i1 %48, label %50, label %49

49:                                               ; preds = %40, %31
  store i1 false, ptr %6, align 1
  store i32 1, ptr %16, align 4
  br label %59

50:                                               ; preds = %40
  %51 = load ptr, ptr %7, align 8
  %52 = getelementptr inbounds nuw %struct.quic_pp_cipher, ptr %51, i32 0, i32 0
  %53 = load ptr, ptr %52, align 8
  %54 = getelementptr inbounds [32 x i8], ptr %12, i64 0, i64 0
  %55 = load i8, ptr %9, align 1
  %56 = zext i8 %55 to i64
  %57 = call i32 @gcry_cipher_setkey(ptr noundef %53, ptr noundef %54, i64 noundef %56)
  %58 = icmp eq i32 %57, 0
  store i1 %58, ptr %6, align 1
  store i32 1, ptr %16, align 4
  br label %59

59:                                               ; preds = %50, %49, %30
  call void @llvm.lifetime.end.p0(i64 8, ptr %15) #19
  call void @llvm.lifetime.end.p0(i64 8, ptr %14) #19
  call void @llvm.lifetime.end.p0(i64 4, ptr %13) #19
  call void @llvm.lifetime.end.p0(i64 32, ptr %12) #19
  %60 = load i1, ptr %6, align 1
  ret i1 %60
}

; Function Attrs: nounwind null_pointer_is_valid sspstrong uwtable
define internal zeroext i1 @quic_get_pn_cipher_algo(i32 noundef %0, ptr noundef %1) #3 {
  %3 = alloca i1, align 1
  %4 = alloca i32, align 4
  %5 = alloca ptr, align 8
  store i32 %0, ptr %4, align 4
  store ptr %1, ptr %5, align 8
  %6 = load i32, ptr %4, align 4
  switch i32 %6, label %11 [
    i32 7, label %7
    i32 9, label %7
    i32 316, label %9
  ]

7:                                                ; preds = %2, %2
  %8 = load ptr, ptr %5, align 8
  store i32 1, ptr %8, align 4
  store i1 true, ptr %3, align 1
  br label %12

9:                                                ; preds = %2
  %10 = load ptr, ptr %5, align 8
  store i32 4, ptr %10, align 4
  store i1 true, ptr %3, align 1
  br label %12

11:                                               ; preds = %2
  store i1 false, ptr %3, align 1
  br label %12

12:                                               ; preds = %11, %9, %7
  %13 = load i1, ptr %3, align 1
  ret i1 %13
}

; Function Attrs: null_pointer_is_valid sspstrong uwtable
define internal void @quic_pp_cipher_reset(ptr noundef %0) #0 {
  %2 = alloca ptr, align 8
  store ptr %0, ptr %2, align 8
  %3 = load ptr, ptr %2, align 8
  %4 = getelementptr inbounds nuw %struct.quic_pp_cipher, ptr %3, i32 0, i32 0
  %5 = load ptr, ptr %4, align 8
  call void @gcry_cipher_close(ptr noundef %5)
  %6 = load ptr, ptr %2, align 8
  %7 = call ptr @memset.inline(ptr noundef %6, i32 noundef 0, i64 noundef 24) #19
  ret void
}

; Function Attrs: null_pointer_is_valid sspstrong uwtable
define internal zeroext i1 @quic_pp_cipher_prepare(ptr noundef %0, i32 noundef %1, i32 noundef %2, i32 noundef %3, ptr noundef %4, ptr noundef %5, i32 noundef %6) #0 {
  %8 = alloca i1, align 1
  %9 = alloca ptr, align 8
  %10 = alloca i32, align 4
  %11 = alloca i32, align 4
  %12 = alloca i32, align 4
  %13 = alloca ptr, align 8
  %14 = alloca ptr, align 8
  %15 = alloca i32, align 4
  %16 = alloca i32, align 4
  %17 = alloca i32, align 4
  %18 = alloca i32, align 4
  store ptr %0, ptr %9, align 8
  store i32 %1, ptr %10, align 4
  store i32 %2, ptr %11, align 4
  store i32 %3, ptr %12, align 4
  store ptr %4, ptr %13, align 8
  store ptr %5, ptr %14, align 8
  store i32 %6, ptr %15, align 4
  %19 = load ptr, ptr %9, align 8
  call void @quic_pp_cipher_reset(ptr noundef %19)
  call void @llvm.lifetime.start.p0(i64 4, ptr %16) #19
  %20 = load i32, ptr %11, align 4
  %21 = call zeroext i1 @quic_get_pn_cipher_algo(i32 noundef %20, ptr noundef %16)
  br i1 %21, label %24, label %22

22:                                               ; preds = %7
  %23 = load ptr, ptr %14, align 8
  store ptr @.str.495, ptr %23, align 8
  store i1 false, ptr %8, align 1
  store i32 1, ptr %17, align 4
  br label %57

24:                                               ; preds = %7
  %25 = load ptr, ptr %9, align 8
  %26 = getelementptr inbounds nuw %struct.quic_pp_cipher, ptr %25, i32 0, i32 0
  %27 = load i32, ptr %11, align 4
  %28 = load i32, ptr %12, align 4
  %29 = call i32 @gcry_cipher_open(ptr noundef %26, i32 noundef %27, i32 noundef %28, i32 noundef 0)
  %30 = icmp ne i32 %29, 0
  br i1 %30, label %31, label %34

31:                                               ; preds = %24
  %32 = load ptr, ptr %9, align 8
  call void @quic_pp_cipher_reset(ptr noundef %32)
  %33 = load ptr, ptr %14, align 8
  store ptr @.str.500, ptr %33, align 8
  store i1 false, ptr %8, align 1
  store i32 1, ptr %17, align 4
  br label %57

34:                                               ; preds = %24
  %35 = load ptr, ptr %13, align 8
  %36 = icmp ne ptr %35, null
  br i1 %36, label %37, label %56

37:                                               ; preds = %34
  call void @llvm.lifetime.start.p0(i64 4, ptr %18) #19
  %38 = load i32, ptr %11, align 4
  %39 = call i64 @gcry_cipher_get_algo_keylen(i32 noundef %38)
  %40 = trunc i64 %39 to i8
  %41 = zext i8 %40 to i32
  store i32 %41, ptr %18, align 4
  %42 = load ptr, ptr %9, align 8
  %43 = load i32, ptr %10, align 4
  %44 = load i32, ptr %18, align 4
  %45 = trunc i32 %44 to i8
  %46 = load ptr, ptr %13, align 8
  %47 = load i32, ptr %15, align 4
  %48 = call zeroext i1 @quic_pp_cipher_init(ptr noundef %42, i32 noundef %43, i8 noundef zeroext %45, ptr noundef %46, i32 noundef %47)
  br i1 %48, label %52, label %49

49:                                               ; preds = %37
  %50 = load ptr, ptr %9, align 8
  call void @quic_pp_cipher_reset(ptr noundef %50)
  %51 = load ptr, ptr %14, align 8
  store ptr @.str.501, ptr %51, align 8
  store i1 false, ptr %8, align 1
  store i32 1, ptr %17, align 4
  br label %53

52:                                               ; preds = %37
  store i32 0, ptr %17, align 4
  br label %53

53:                                               ; preds = %52, %49
  call void @llvm.lifetime.end.p0(i64 4, ptr %18) #19
  %54 = load i32, ptr %17, align 4
  switch i32 %54, label %57 [
    i32 0, label %55
  ]

55:                                               ; preds = %53
  br label %56

56:                                               ; preds = %55, %34
  store i1 true, ptr %8, align 1
  store i32 1, ptr %17, align 4
  br label %57

57:                                               ; preds = %56, %53, %31, %22
  call void @llvm.lifetime.end.p0(i64 4, ptr %16) #19
  %58 = load i1, ptr %8, align 1
  ret i1 %58
}