; Function Attrs: null_pointer_is_valid sspstrong uwtable
define internal fastcc noundef zeroext i1 @quic_pp_cipher_prepare(ptr noundef %0, i32 noundef %1, i32 noundef %2, i32 noundef %3, ptr noundef %4, ptr noundef writeonly captures(none) %5, i32 noundef %6) unnamed_addr #0 {
  %8 = alloca %struct._StringInfo, align 8
  %9 = alloca ptr, align 8
  %10 = alloca %struct._StringInfo, align 8
  %11 = alloca ptr, align 8
  %12 = alloca [32 x i8], align 16
  %13 = load ptr, ptr %0, align 8
  tail call void @gcry_cipher_close(ptr noundef %13)
  tail call void @llvm.memset.p0.i64(ptr noundef align 1 dereferenceable(24) %0, i8 noundef 0, i64 noundef 24, i1 noundef false) #18
  switch i32 %2, label %.critedge.sink.split [
    i32 7, label %14
    i32 9, label %14
    i32 316, label %14
  ]

14:                                               ; preds = %7, %7, %7
  %15 = tail call i32 @gcry_cipher_open(ptr noundef %0, i32 noundef %2, i32 noundef %3, i32 noundef 0)
  %.not = icmp eq i32 %15, 0
  br i1 %.not, label %18, label %16

16:                                               ; preds = %14
  %17 = load ptr, ptr %0, align 8
  tail call void @gcry_cipher_close(ptr noundef %17)
  tail call void @llvm.memset.p0.i64(ptr noundef align 1 dereferenceable(24) %0, i8 noundef 0, i64 noundef 24, i1 noundef false) #18
  br label %.critedge.sink.split

18:                                               ; preds = %14
  %.not20 = icmp eq ptr %4, null
  br i1 %.not20, label %.critedge, label %19

19:                                               ; preds = %18
  %20 = tail call i64 @gcry_cipher_get_algo_keylen(i32 noundef %2)
  %21 = trunc i64 %20 to i8
  call void @llvm.lifetime.start.p0(i64 32, ptr nonnull %12) #18
  %22 = tail call i32 @gcry_md_get_algo_dlen(i32 noundef %1)
  %23 = icmp eq i32 %6, 1798521807
  %24 = select i1 %23, ptr @.str.505, ptr @.str.504
  %25 = and i64 %20, 255
  %26 = icmp ugt i8 %21, 32
  br i1 %26, label %quic_pp_cipher_init.exit.thread, label %27

27:                                               ; preds = %19
  %28 = select i1 %23, ptr @.str.503, ptr @.str.502
  call void @llvm.lifetime.start.p0(i64 16, ptr nonnull %10) #18
  store ptr %4, ptr %10, align 8
  %29 = getelementptr inbounds nuw i8, ptr %10, i64 8
  store i32 %22, ptr %29, align 8
  %30 = getelementptr inbounds nuw i8, ptr %10, i64 12
  store i32 0, ptr %30, align 4
  call void @llvm.lifetime.start.p0(i64 8, ptr nonnull %11) #18
  store ptr null, ptr %11, align 8
  %31 = trunc i64 %20 to i16
  %32 = and i16 %31, 63
  %33 = call zeroext i1 @tls13_hkdf_expand_label(i32 noundef %1, ptr noundef nonnull %10, ptr noundef nonnull @.str.494, ptr noundef nonnull %28, i16 noundef zeroext %32, ptr noundef nonnull %11)
  br i1 %33, label %34, label %quic_hkdf_expand_label.exit.i

quic_hkdf_expand_label.exit.i:                    ; preds = %27
  call void @llvm.lifetime.end.p0(i64 8, ptr nonnull %11) #18
  call void @llvm.lifetime.end.p0(i64 16, ptr nonnull %10) #18
  br label %quic_pp_cipher_init.exit.thread

34:                                               ; preds = %27
  %35 = load ptr, ptr %11, align 8
  %36 = call ptr @__memcpy_chk(ptr noundef nonnull %12, ptr noundef %35, i64 noundef range(i64 0, 4294967296) %25, i64 noundef 32) #18, !alias.scope !31
  call void @wmem_free(ptr noundef null, ptr noundef %35)
  call void @llvm.lifetime.end.p0(i64 8, ptr nonnull %11) #18
  call void @llvm.lifetime.end.p0(i64 16, ptr nonnull %10) #18
  call void @llvm.lifetime.start.p0(i64 16, ptr nonnull %8) #18
  store ptr %4, ptr %8, align 8
  %37 = getelementptr inbounds nuw i8, ptr %8, i64 8
  store i32 %22, ptr %37, align 8
  %38 = getelementptr inbounds nuw i8, ptr %8, i64 12
  store i32 0, ptr %38, align 4
  call void @llvm.lifetime.start.p0(i64 8, ptr nonnull %9) #18
  store ptr null, ptr %9, align 8
  %39 = call zeroext i1 @tls13_hkdf_expand_label(i32 noundef %1, ptr noundef nonnull %8, ptr noundef nonnull @.str.494, ptr noundef nonnull %24, i16 noundef zeroext 12, ptr noundef nonnull %9)
  br i1 %39, label %quic_pp_cipher_init.exit, label %quic_hkdf_expand_label.exit17.i

quic_hkdf_expand_label.exit17.i:                  ; preds = %34
  call void @llvm.lifetime.end.p0(i64 8, ptr nonnull %9) #18
  call void @llvm.lifetime.end.p0(i64 16, ptr nonnull %8) #18
  br label %quic_pp_cipher_init.exit.thread

quic_pp_cipher_init.exit.thread:                  ; preds = %19, %quic_hkdf_expand_label.exit17.i, %quic_hkdf_expand_label.exit.i
  call void @llvm.lifetime.end.p0(i64 32, ptr nonnull %12) #18
  br label %45

quic_pp_cipher_init.exit:                         ; preds = %34
  %40 = getelementptr inbounds nuw i8, ptr %0, i64 8
  %41 = load ptr, ptr %9, align 8
  call void @llvm.memcpy.p0.p0.i64(ptr noundef nonnull align 1 dereferenceable(12) %40, ptr noundef align 1 dereferenceable(12) %41, i64 noundef range(i64 0, 4294967296) 12, i1 noundef false) #18
  call void @wmem_free(ptr noundef null, ptr noundef %41)
  call void @llvm.lifetime.end.p0(i64 8, ptr nonnull %9) #18
  call void @llvm.lifetime.end.p0(i64 16, ptr nonnull %8) #18
  %42 = load ptr, ptr %0, align 8
  %43 = call i32 @gcry_cipher_setkey(ptr noundef %42, ptr noundef nonnull %12, i64 noundef %25)
  %44 = icmp eq i32 %43, 0
  call void @llvm.lifetime.end.p0(i64 32, ptr nonnull %12) #18
  br i1 %44, label %.critedge, label %45

45:                                               ; preds = %quic_pp_cipher_init.exit.thread, %quic_pp_cipher_init.exit
  %46 = load ptr, ptr %0, align 8
  call void @gcry_cipher_close(ptr noundef %46)
  call void @llvm.memset.p0.i64(ptr noundef align 1 dereferenceable(24) %0, i8 noundef 0, i64 noundef 24, i1 noundef false) #18
  br label %.critedge.sink.split

.critedge.sink.split:                             ; preds = %7, %16, %45
  %.str.501.sink = phi ptr [ @.str.501, %45 ], [ @.str.500, %16 ], [ @.str.495, %7 ]
  store ptr %.str.501.sink, ptr %5, align 8
  br label %.critedge

.critedge:                                        ; preds = %.critedge.sink.split, %18, %quic_pp_cipher_init.exit
  %.0 = phi i1 [ true, %quic_pp_cipher_init.exit ], [ true, %18 ], [ false, %.critedge.sink.split ]
  ret i1 %.0
}